target datalayout = "e-m:e-p270:32:32-p271:32:32-p272:64:64-i64:64-i128:128-f80:128-n8:16:32:64-S128"
target triple = "x86_64-unknown-linux-gnu"

%"class.folly::detail::ScopeGuardImpl" = type { %"class.folly::detail::ScopeGuardImplBase", %class.anon.26 }
%"class.folly::detail::ScopeGuardImplBase" = type { i8 }
%class.anon.26 = type { ptr }

@.str = private unnamed_addr constant [22 x i8] c"Error reading file %s\00", align 1

; Function Attrs: mustprogress nounwind uwtable
define linkonce_odr void @_ZN5folly6detail18ScopeGuardImplBase7dismissEv(ptr noundef nonnull align 1 dereferenceable(1) %this) #2 comdat align 2 {
entry:
  %this.addr = alloca ptr, align 8
  store ptr %this, ptr %this.addr, align 8
  %this1 = load ptr, ptr %this.addr, align 8
  %dismissed_ = getelementptr inbounds %"class.folly::detail::ScopeGuardImplBase", ptr %this1, i32 0, i32 0
  store i8 1, ptr %dismissed_, align 1
  ret void
}

; Function Attrs: mustprogress nounwind uwtable
define linkonce_odr void @_ZN5folly6detail18ScopeGuardImplBaseC2Eb(ptr noundef nonnull align 1 dereferenceable(1) %this, i1 noundef zeroext %dismissed) unnamed_addr #2 comdat align 2 {
entry:
  %this.addr = alloca ptr, align 8
  %dismissed.addr = alloca i8, align 1
  store ptr %this, ptr %this.addr, align 8
  %frombool = zext i1 %dismissed to i8
  store i8 %frombool, ptr %dismissed.addr, align 1
  %this1 = load ptr, ptr %this.addr, align 8
  %dismissed_ = getelementptr inbounds %"class.folly::detail::ScopeGuardImplBase", ptr %this1, i32 0, i32 0
  %0 = load i8, ptr %dismissed.addr, align 1
  %tobool = trunc i8 %0 to i1
  %frombool2 = zext i1 %tobool to i8
  store i8 %frombool2, ptr %dismissed_, align 1
  ret void
}

; Function Attrs: mustprogress nounwind uwtable
define linkonce_odr i8 @_ZN5folly6detail18ScopeGuardImplBase19makeEmptyScopeGuardEv() #2 comdat align 2 {
entry:
  %retval = alloca %"class.folly::detail::ScopeGuardImplBase", align 1
  call void @_ZN5folly6detail18ScopeGuardImplBaseC2Eb(ptr noundef nonnull align 1 dereferenceable(1) %retval, i1 noundef zeroext false) #15
  %coerce.dive = getelementptr inbounds %"class.folly::detail::ScopeGuardImplBase", ptr %retval, i32 0, i32 0
  %0 = load i8, ptr %coerce.dive, align 1
  ret i8 %0
}

; Function Attrs: mustprogress nounwind uwtable
define linkonce_odr void @_ZN5folly6detail14ScopeGuardImplIZNS_8readFileINSt7__cxx1112basic_stringIcSt11char_traitsIcESaIcEEEEEbPKcRT_mEUlvE_Lb1EEC2ISD_EEOSB_ONS0_18ScopeGuardImplBaseE(ptr noundef nonnull align 8 dereferenceable(16) %this, ptr noundef nonnull align 8 dereferenceable(8) %fn, ptr noundef nonnull align 1 dereferenceable(1) %failsafe) unnamed_addr #2 comdat align 2 {
entry:
  %this.addr = alloca ptr, align 8
  %fn.addr = alloca ptr, align 8
  %failsafe.addr = alloca ptr, align 8
  store ptr %this, ptr %this.addr, align 8
  store ptr %fn, ptr %fn.addr, align 8
  store ptr %failsafe, ptr %failsafe.addr, align 8
  %this1 = load ptr, ptr %this.addr, align 8
  call void @_ZN5folly6detail18ScopeGuardImplBaseC2Eb(ptr noundef nonnull align 1 dereferenceable(1) %this1, i1 noundef zeroext false) #15
  %function_ = getelementptr inbounds %"class.folly::detail::ScopeGuardImpl", ptr %this1, i32 0, i32 1
  %0 = load ptr, ptr %fn.addr, align 8
  call void @llvm.memcpy.p0.p0.i64(ptr align 8 %function_, ptr align 8 %0, i64 8, i1 false)
  %1 = load ptr, ptr %failsafe.addr, align 8
  call void @_ZN5folly6detail18ScopeGuardImplBase7dismissEv(ptr noundef nonnull align 1 dereferenceable(1) %1) #15
  ret void
}

; Function Attrs: mustprogress nounwind uwtable
define linkonce_odr i8 @_ZN5folly6detail14ScopeGuardImplIZNS_8readFileINSt7__cxx1112basic_stringIcSt11char_traitsIcESaIcEEEEEbPKcRT_mEUlvE_Lb1EE12makeFailsafeESt17integral_constantIbLb1EEPKv(ptr noundef %0) #2 comdat align 2 {
entry:
  %retval = alloca %"class.folly::detail::ScopeGuardImplBase", align 1
  %.addr = alloca ptr, align 8
  store ptr %0, ptr %.addr, align 8
  %call = call i8 @_ZN5folly6detail18ScopeGuardImplBase19makeEmptyScopeGuardEv() #15
  %coerce.dive = getelementptr inbounds %"class.folly::detail::ScopeGuardImplBase", ptr %retval, i32 0, i32 0
  store i8 %call, ptr %coerce.dive, align 1
  %coerce.dive1 = getelementptr inbounds %"class.folly::detail::ScopeGuardImplBase", ptr %retval, i32 0, i32 0
  %1 = load i8, ptr %coerce.dive1, align 1
  ret i8 %1
}

; Function Attrs: mustprogress nounwind uwtable
define linkonce_odr void @_ZN5folly6detail14ScopeGuardImplIZNS_8readFileINSt7__cxx1112basic_stringIcSt11char_traitsIcESaIcEEEEEbPKcRT_mEUlvE_Lb1EEC2EOSD_(ptr noundef nonnull align 8 dereferenceable(16) %this, ptr noundef nonnull align 8 dereferenceable(8) %fn) unnamed_addr #2 comdat align 2 personality ptr @__gxx_personality_v0 {
entry:
  %this.addr = alloca ptr, align 8
  %fn.addr = alloca ptr, align 8
  %ref.tmp = alloca %"class.folly::detail::ScopeGuardImplBase", align 1
  store ptr %this, ptr %this.addr, align 8
  store ptr %fn, ptr %fn.addr, align 8
  %this1 = load ptr, ptr %this.addr, align 8
  %0 = load ptr, ptr %fn.addr, align 8
  %1 = load ptr, ptr %fn.addr, align 8
  %call = call i8 @_ZN5folly6detail14ScopeGuardImplIZNS_8readFileINSt7__cxx1112basic_stringIcSt11char_traitsIcESaIcEEEEEbPKcRT_mEUlvE_Lb1EE12makeFailsafeESt17integral_constantIbLb1EEPKv(ptr noundef %1) #15
  %coerce.dive = getelementptr inbounds %"class.folly::detail::ScopeGuardImplBase", ptr %ref.tmp, i32 0, i32 0
  store i8 %call, ptr %coerce.dive, align 1
  invoke void @_ZN5folly6detail14ScopeGuardImplIZNS_8readFileINSt7__cxx1112basic_stringIcSt11char_traitsIcESaIcEEEEEbPKcRT_mEUlvE_Lb1EEC2ISD_EEOSB_ONS0_18ScopeGuardImplBaseE(ptr noundef nonnull align 8 dereferenceable(16) %this1, ptr noundef nonnull align 8 dereferenceable(8) %0, ptr noundef nonnull align 1 dereferenceable(1) %ref.tmp)
          to label %invoke.cont unwind label %terminate.lpad

invoke.cont:                                      ; preds = %entry
  ret void

terminate.lpad:                                   ; preds = %entry
  %2 = landingpad { ptr, i32 }
          catch ptr null
  %3 = extractvalue { ptr, i32 } %2, 0
  call void @__clang_call_terminate(ptr %3) #17
  unreachable
}

; Function Attrs: mustprogress nounwind uwtable
define linkonce_odr void @_ZN5folly6detailplIZNS_8readFileINSt7__cxx1112basic_stringIcSt11char_traitsIcESaIcEEEEEbPKcRT_mEUlvE_EENS0_14ScopeGuardImplINSt5decayISB_E4typeELb1EEENS0_16ScopeGuardOnExitEOSB_(ptr noalias sret(%"class.folly::detail::ScopeGuardImpl") align 8 %agg.result, i32 noundef %0, ptr noundef nonnull align 8 dereferenceable(8) %fn) #2 comdat {
entry:
  %result.ptr = alloca ptr, align 8
  %.addr = alloca i32, align 4
  %fn.addr = alloca ptr, align 8
  store ptr %agg.result, ptr %result.ptr, align 8
  store i32 %0, ptr %.addr, align 4
  store ptr %fn, ptr %fn.addr, align 8
  %1 = load ptr, ptr %fn.addr, align 8
  call void @_ZN5folly6detail14ScopeGuardImplIZNS_8readFileINSt7__cxx1112basic_stringIcSt11char_traitsIcESaIcEEEEEbPKcRT_mEUlvE_Lb1EEC2EOSD_(ptr noundef nonnull align 8 dereferenceable(16) %agg.result, ptr noundef nonnull align 8 dereferenceable(8) %1) #15
  ret void
}

; Function Attrs: mustprogress uwtable
define linkonce_odr noundef zeroext i1 @_ZN5folly8readFileINSt7__cxx1112basic_stringIcSt11char_traitsIcESaIcEEEEEbPKcRT_m(ptr noundef %file_name, ptr noundef nonnull align 8 dereferenceable(32) %out, i64 noundef %num_bytes) #0 comdat personality ptr @__gxx_personality_v0 {
entry:
  %retval = alloca i1, align 1
  %file_name.addr = alloca ptr, align 8
  %out.addr = alloca ptr, align 8
  %num_bytes.addr = alloca i64, align 8
  %fd = alloca i32, align 4
  %SCOPE_EXIT_STATE1 = alloca %"class.folly::detail::ScopeGuardImpl", align 8
  %ref.tmp = alloca %class.anon.26, align 8
  %exn.slot = alloca ptr, align 8
  %ehselector.slot = alloca i32, align 4
  store ptr %file_name, ptr %file_name.addr, align 8
  store ptr %out, ptr %out.addr, align 8
  store i64 %num_bytes, ptr %num_bytes.addr, align 8
  %0 = load ptr, ptr %file_name.addr, align 8
  %call = call noundef i32 @_ZN5folly9openNoIntEPKcij(ptr noundef %0, i32 noundef 524288, i32 noundef 438)
  store i32 %call, ptr %fd, align 4
  %1 = load i32, ptr %fd, align 4
  %cmp = icmp eq i32 %1, -1
  br i1 %cmp, label %if.then, label %if.end

if.then:                                          ; preds = %entry
  store i1 false, ptr %retval, align 1
  br label %return

if.end:                                           ; preds = %entry
  %2 = getelementptr inbounds %class.anon.26, ptr %ref.tmp, i32 0, i32 0
  store ptr %fd, ptr %2, align 8
  call void @_ZN5folly6detailplIZNS_8readFileINSt7__cxx1112basic_stringIcSt11char_traitsIcESaIcEEEEEbPKcRT_mEUlvE_EENS0_14ScopeGuardImplINSt5decayISB_E4typeELb1EEENS0_16ScopeGuardOnExitEOSB_(ptr sret(%"class.folly::detail::ScopeGuardImpl") align 8 %SCOPE_EXIT_STATE1, i32 noundef 0, ptr noundef nonnull align 8 dereferenceable(8) %ref.tmp)
  %3 = load i32, ptr %fd, align 4
  %4 = load ptr, ptr %out.addr, align 8
  %5 = load i64, ptr %num_bytes.addr, align 8
  %call1 = invoke noundef zeroext i1 @_ZN5folly8readFileINSt7__cxx1112basic_stringIcSt11char_traitsIcESaIcEEEEEbiRT_m(i32 noundef %3, ptr noundef nonnull align 8 dereferenceable(32) %4, i64 noundef %5)
          to label %invoke.cont unwind label %lpad

invoke.cont:                                      ; preds = %if.end
  store i1 %call1, ptr %retval, align 1
  call void @_ZN5folly6detail14ScopeGuardImplIZNS_8readFileINSt7__cxx1112basic_stringIcSt11char_traitsIcESaIcEEEEEbPKcRT_mEUlvE_Lb1EED2Ev(ptr noundef nonnull align 8 dereferenceable(16) %SCOPE_EXIT_STATE1) #15
  br label %return

lpad:                                             ; preds = %if.end
  %6 = landingpad { ptr, i32 }
          cleanup
  %7 = extractvalue { ptr, i32 } %6, 0
  store ptr %7, ptr %exn.slot, align 8
  %8 = extractvalue { ptr, i32 } %6, 1
  store i32 %8, ptr %ehselector.slot, align 4
  call void @_ZN5folly6detail14ScopeGuardImplIZNS_8readFileINSt7__cxx1112basic_stringIcSt11char_traitsIcESaIcEEEEEbPKcRT_mEUlvE_Lb1EED2Ev(ptr noundef nonnull align 8 dereferenceable(16) %SCOPE_EXIT_STATE1) #15
  br label %eh.resume

return:                                           ; preds = %invoke.cont, %if.then
  %9 = load i1, ptr %retval, align 1
  ret i1 %9

eh.resume:                                        ; preds = %lpad
  %exn = load ptr, ptr %exn.slot, align 8
  %sel = load i32, ptr %ehselector.slot, align 4
  %lpad.val = insertvalue { ptr, i32 } poison, ptr %exn, 0
  %lpad.val2 = insertvalue { ptr, i32 } %lpad.val, i32 %sel, 1
  resume { ptr, i32 } %lpad.val2
}

; Function Attrs: mustprogress nounwind uwtable
define linkonce_odr noundef i64 @_ZNSt14numeric_limitsImE3maxEv() #2 comdat align 2 {
entry:
  ret i64 -1
}

; Function Attrs: mustprogress uwtable
define void @_ZN8proxygen23FileServerListGenerator13FileGenerator8readFileERNSt7__cxx1112basic_stringIcSt11char_traitsIcESaIcEEES8_(ptr noundef nonnull align 8 dereferenceable(24) %this, ptr noundef nonnull align 8 dereferenceable(32) %filePath, ptr noundef nonnull align 8 dereferenceable(32) %content) unnamed_addr #0 align 2 {
entry:
  %args.addr.i = alloca ptr, align 8
  %args.addr2.i = alloca ptr, align 8
  %this.addr = alloca ptr, align 8
  %filePath.addr = alloca ptr, align 8
  %content.addr = alloca ptr, align 8
  store ptr %this, ptr %this.addr, align 8
  store ptr %filePath, ptr %filePath.addr, align 8
  store ptr %content, ptr %content.addr, align 8
  %0 = load ptr, ptr %filePath.addr, align 8
  %call = call noundef ptr @_ZNKSt7__cxx1112basic_stringIcSt11char_traitsIcESaIcEE5c_strEv(ptr noundef nonnull align 8 dereferenceable(32) %0) #15
  %1 = load ptr, ptr %content.addr, align 8
  %call2 = call noundef i64 @_ZNSt14numeric_limitsImE3maxEv() #15
  %call3 = call noundef zeroext i1 @_ZN5folly8readFileINSt7__cxx1112basic_stringIcSt11char_traitsIcESaIcEEEEEbPKcRT_m(ptr noundef %call, ptr noundef nonnull align 8 dereferenceable(32) %1, i64 noundef %call2)
  br i1 %call3, label %if.end, label %if.then

if.then:                                          ; preds = %entry
  %2 = load ptr, ptr %filePath.addr, align 8
  store ptr @.str, ptr %args.addr.i, align 8
  store ptr %2, ptr %args.addr2.i, align 8
  %3 = load ptr, ptr %args.addr.i, align 8
  %4 = load ptr, ptr %args.addr2.i, align 8
  call void @_ZN5folly6detail16throw_exception_IN8proxygen9ExceptionEJPKcRNSt7__cxx1112basic_stringIcSt11char_traitsIcESaIcEEEEEEvDpT0_(ptr noundef %3, ptr noundef nonnull align 8 dereferenceable(32) %4) #16
  unreachable

_ZN5folly15throw_exceptionIN8proxygen9ExceptionEJRA22_KcRNSt7__cxx1112basic_stringIcSt11char_traitsIcESaIcEEEEEEvDpOT0_.exit: ; No predecessors!
  unreachable

if.end:                                           ; preds = %entry
  ret void
}