; Function Attrs: mustprogress uwtable
define void @_ZN8proxygen23FileServerListGenerator13FileGenerator8readFileERNSt7__cxx1112basic_stringIcSt11char_traitsIcESaIcEEES8_(ptr nocapture nonnull readnone align 8 %this, ptr noundef nonnull align 8 dereferenceable(32) %filePath, ptr noundef nonnull align 8 dereferenceable(32) %content) unnamed_addr #0 align 2 personality ptr @__gxx_personality_v0 {
entry:
  %fd.i = alloca i32, align 4
  %SCOPE_EXIT_STATE1.i = alloca %"class.folly::detail::ScopeGuardImpl", align 8
  %call = tail call noundef ptr @_ZNKSt7__cxx1112basic_stringIcSt11char_traitsIcESaIcEE5c_strEv(ptr noundef nonnull align 8 dereferenceable(32) %filePath) #18
  call void @llvm.lifetime.start.p0(i64 4, ptr nonnull %fd.i)
  call void @llvm.lifetime.start.p0(i64 16, ptr nonnull %SCOPE_EXIT_STATE1.i)
  %call.i = tail call noundef i32 @_ZN5folly9openNoIntEPKcij(ptr noundef %call, i32 noundef 524288, i32 noundef 438)
  store i32 %call.i, ptr %fd.i, align 4
  %cmp.i = icmp eq i32 %call.i, -1
  br i1 %cmp.i, label %_ZN5folly8readFileINSt7__cxx1112basic_stringIcSt11char_traitsIcESaIcEEEEEbPKcRT_m.exit.thread, label %if.end.i

_ZN5folly8readFileINSt7__cxx1112basic_stringIcSt11char_traitsIcESaIcEEEEEbPKcRT_m.exit.thread: ; preds = %entry
  call void @llvm.lifetime.end.p0(i64 4, ptr nonnull %fd.i)
  call void @llvm.lifetime.end.p0(i64 16, ptr nonnull %SCOPE_EXIT_STATE1.i)
  br label %if.then

if.end.i:                                         ; preds = %entry
  store i8 0, ptr %SCOPE_EXIT_STATE1.i, align 8, !alias.scope !4
  %function_.i.i.i.i = getelementptr inbounds i8, ptr %SCOPE_EXIT_STATE1.i, i64 8
  %0 = ptrtoint ptr %fd.i to i64
  store i64 %0, ptr %function_.i.i.i.i, align 8, !alias.scope !4
  %call1.i = invoke noundef zeroext i1 @_ZN5folly8readFileINSt7__cxx1112basic_stringIcSt11char_traitsIcESaIcEEEEEbiRT_m(i32 noundef %call.i, ptr noundef nonnull align 8 dereferenceable(32) %content, i64 noundef -1)
          to label %if.then.i.i unwind label %lpad.i

if.then.i.i:                                      ; preds = %if.end.i
  %1 = load i32, ptr %fd.i, align 4
  %call.i.i.i.i = invoke noundef i32 @_ZN5folly10closeNoIntEi(i32 noundef %1)
          to label %_ZN5folly8readFileINSt7__cxx1112basic_stringIcSt11char_traitsIcESaIcEEEEEbPKcRT_m.exit unwind label %terminate.lpad.i.i.i.i

terminate.lpad.i.i.i.i:                           ; preds = %if.then.i.i
  %2 = landingpad { ptr, i32 }
          catch ptr null
  %3 = extractvalue { ptr, i32 } %2, 0
  call void @__clang_call_terminate(ptr %3) #19
  unreachable

lpad.i:                                           ; preds = %if.end.i
  %4 = landingpad { ptr, i32 }
          cleanup
  call void @_ZN5folly6detail14ScopeGuardImplIZNS_8readFileINSt7__cxx1112basic_stringIcSt11char_traitsIcESaIcEEEEEbPKcRT_mEUlvE_Lb1EED2Ev(ptr noundef nonnull align 8 dereferenceable(16) %SCOPE_EXIT_STATE1.i) #18
  resume { ptr, i32 } %4

_ZN5folly8readFileINSt7__cxx1112basic_stringIcSt11char_traitsIcESaIcEEEEEbPKcRT_m.exit: ; preds = %if.then.i.i
  call void @llvm.lifetime.end.p0(i64 4, ptr nonnull %fd.i)
  call void @llvm.lifetime.end.p0(i64 16, ptr nonnull %SCOPE_EXIT_STATE1.i)
  br i1 %call1.i, label %if.end, label %if.then

if.then:                                          ; preds = %_ZN5folly8readFileINSt7__cxx1112basic_stringIcSt11char_traitsIcESaIcEEEEEbPKcRT_m.exit.thread, %_ZN5folly8readFileINSt7__cxx1112basic_stringIcSt11char_traitsIcESaIcEEEEEbPKcRT_m.exit
  call void @_ZN5folly6detail16throw_exception_IN8proxygen9ExceptionEJPKcRNSt7__cxx1112basic_stringIcSt11char_traitsIcESaIcEEEEEEvDpT0_(ptr noundef nonnull @.str, ptr noundef nonnull align 8 dereferenceable(32) %filePath) #20
  unreachable

if.end:                                           ; preds = %_ZN5folly8readFileINSt7__cxx1112basic_stringIcSt11char_traitsIcESaIcEEEEEbPKcRT_m.exit
  ret void
}